; Function Attrs: nounwind uwtable
define internal void @fn_printf_va_fl(ptr noundef %0, i32 noundef %1, i64 %2, ptr noundef %3, ptr noundef %4) #0 {
  %6 = alloca [1 x %struct.__va_list_tag], align 16
  %7 = alloca %struct.strbuf, align 8
  call void @llvm.lifetime.start.p0(i64 24, ptr nonnull %7) #7
  call void @llvm.memcpy.p0.p0.i64(ptr noundef nonnull align 8 dereferenceable(24) %7, ptr noundef nonnull align 8 dereferenceable(24) @__const.fn_counter.buf_payload, i64 24, i1 false)
  %.not.i = icmp eq ptr %3, null
  br i1 %.not.i, label %maybe_append_string_va.exit, label %8

8:                                                ; preds = %5
  %9 = load i8, ptr %3, align 1, !tbaa !4
  %.not5.i = icmp eq i8 %9, 0
  br i1 %.not5.i, label %maybe_append_string_va.exit, label %10

10:                                               ; preds = %8
  call void @llvm.lifetime.start.p0(i64 24, ptr nonnull %6) #7
  call void @llvm.va_copy.p0(ptr nonnull %6, ptr %4)
  call void @strbuf_vaddf(ptr noundef nonnull %7, ptr noundef nonnull %3, ptr noundef nonnull %6) #7
  call void @llvm.va_end.p0(ptr nonnull %6)
  call void @llvm.lifetime.end.p0(i64 24, ptr nonnull %6) #7
  br label %maybe_append_string_va.exit

maybe_append_string_va.exit:                      ; preds = %5, %8, %10
  call fastcc void @normal_io_write_fl(ptr noundef %0, i32 noundef %1, ptr noundef %7)
  call void @strbuf_release(ptr noundef nonnull %7) #7
  call void @llvm.lifetime.end.p0(i64 24, ptr nonnull %7) #7
  ret void
}